target datalayout = "e-m:e-p270:32:32-p271:32:32-p272:64:64-i64:64-i128:128-f80:128-n8:16:32:64-S128"
target triple = "x86_64-pc-linux-gnu"

%"class.cvc5::internal::theory::arith::linear::RaiseConflict" = type { ptr }
%"class.cvc5::internal::theory::arith::linear::SimplexDecisionProcedure" = type { %"class.cvc5::internal::EnvObj", i32, %"class.cvc5::internal::DenseSet", i32, ptr, ptr, ptr, ptr, i32, %"class.cvc5::internal::theory::arith::linear::RaiseConflict", ptr, %"class.cvc5::internal::theory::arith::linear::TempVarMalloc", i32, %"class.cvc5::internal::Rational", %"class.cvc5::internal::Rational", %"class.cvc5::internal::Rational", i64 }
%"class.cvc5::internal::EnvObj" = type { ptr, ptr }
%"class.cvc5::internal::DenseSet" = type { %"class.cvc5::internal::DenseMap" }
%"class.cvc5::internal::DenseMap" = type { %"class.std::vector", %"class.std::vector", %"class.std::vector.0" }
%"class.std::vector" = type { %"struct.std::_Vector_base" }
%"struct.std::_Vector_base" = type { %"struct.std::_Vector_base<unsigned int, std::allocator<unsigned int>>::_Vector_impl" }
%"struct.std::_Vector_base<unsigned int, std::allocator<unsigned int>>::_Vector_impl" = type { %"struct.std::_Vector_base<unsigned int, std::allocator<unsigned int>>::_Vector_impl_data" }
%"struct.std::_Vector_base<unsigned int, std::allocator<unsigned int>>::_Vector_impl_data" = type { ptr, ptr, ptr }
%"class.std::vector.0" = type { %"struct.std::_Bvector_base" }
%"struct.std::_Bvector_base" = type { %"struct.std::_Bvector_base<std::allocator<bool>>::_Bvector_impl" }
%"struct.std::_Bvector_base<std::allocator<bool>>::_Bvector_impl" = type { %"struct.std::_Bvector_base<std::allocator<bool>>::_Bvector_impl_data" }
%"struct.std::_Bvector_base<std::allocator<bool>>::_Bvector_impl_data" = type { %"struct.std::_Bit_iterator", %"struct.std::_Bit_iterator", ptr }
%"struct.std::_Bit_iterator" = type { %"struct.std::_Bit_iterator_base.base", [4 x i8] }
%"struct.std::_Bit_iterator_base.base" = type <{ ptr, i32 }>
%"class.cvc5::internal::theory::arith::linear::TempVarMalloc" = type { %"class.cvc5::internal::theory::arith::linear::ArithVarMalloc", ptr }
%"class.cvc5::internal::theory::arith::linear::ArithVarMalloc" = type { ptr }
%"class.cvc5::internal::Rational" = type { %class.__gmp_expr }
%class.__gmp_expr = type { [1 x %struct.__mpq_struct] }
%struct.__mpq_struct = type { %struct.__mpz_struct, %struct.__mpz_struct }
%struct.__mpz_struct = type { i32, i32, ptr }

; Function Attrs: mustprogress uwtable
define linkonce_odr hidden void @_ZN4cvc58internal8DenseSet3addEj(ptr noundef nonnull align 8 dereferenceable(88) %0, i32 noundef %1) #4 comdat align 2 {
  %3 = alloca ptr, align 8
  %4 = alloca i32, align 4
  %5 = alloca i8, align 1
  store ptr %0, ptr %3, align 8, !tbaa !268
  store i32 %1, ptr %4, align 4, !tbaa !300
  %6 = load ptr, ptr %3, align 8
  %7 = getelementptr inbounds nuw %"class.cvc5::internal::DenseSet", ptr %6, i32 0, i32 0
  %8 = load i32, ptr %4, align 4, !tbaa !300
  call void @llvm.lifetime.start.p0(i64 1, ptr %5) #3
  store i8 1, ptr %5, align 1, !tbaa !313
  call void @_ZN4cvc58internal8DenseMapIbE3setEjRKb(ptr noundef nonnull align 8 dereferenceable(88) %7, i32 noundef %8, ptr noundef nonnull align 1 dereferenceable(1) %5)
  call void @llvm.lifetime.end.p0(i64 1, ptr %5) #3
  ret void
}

; Function Attrs: mustprogress uwtable
define hidden void @_ZN4cvc58internal6theory5arith6linear24SimplexDecisionProcedure14reportConflictEj(ptr noundef nonnull align 8 dereferenceable(304) %0, i32 noundef %1) #4 align 2 {
  %3 = alloca ptr, align 8
  %4 = alloca i32, align 4
  %5 = alloca ptr, align 8
  store ptr %0, ptr %3, align 8, !tbaa !3
  store i32 %1, ptr %4, align 4, !tbaa !300
  %6 = load ptr, ptr %3, align 8
  call void @llvm.lifetime.start.p0(i64 8, ptr %5) #3
  %7 = load i32, ptr %4, align 4, !tbaa !300
  %8 = call noundef ptr @_ZNK4cvc58internal6theory5arith6linear24SimplexDecisionProcedure24generateConflictForBasicEj(ptr noundef nonnull align 8 dereferenceable(304) %6, i32 noundef %7)
  store ptr %8, ptr %5, align 8, !tbaa !356
  %9 = getelementptr inbounds nuw %"class.cvc5::internal::theory::arith::linear::SimplexDecisionProcedure", ptr %6, i32 0, i32 9
  %10 = load ptr, ptr %5, align 8, !tbaa !356
  call void @_ZNK4cvc58internal6theory5arith6linear13RaiseConflict13raiseConflictEPKNS3_10ConstraintENS1_11InferenceIdE(ptr noundef nonnull align 8 dereferenceable(8) %9, ptr noundef %10, i32 noundef 13)
  %11 = getelementptr inbounds nuw %"class.cvc5::internal::theory::arith::linear::SimplexDecisionProcedure", ptr %6, i32 0, i32 2
  %12 = load i32, ptr %4, align 4, !tbaa !300
  call void @_ZN4cvc58internal8DenseSet3addEj(ptr noundef nonnull align 8 dereferenceable(88) %11, i32 noundef %12)
  call void @llvm.lifetime.end.p0(i64 8, ptr %5) #3
  ret void
}