; Function Attrs: mustprogress uwtable
define hidden void @_ZN4cvc58internal6theory5arith6linear24SimplexDecisionProcedure14reportConflictEj(ptr noundef nonnull align 8 dereferenceable(304) %0, i32 noundef %1) local_unnamed_addr #3 align 2 {
  %3 = alloca i8, align 1
  %4 = tail call noundef ptr @_ZNK4cvc58internal6theory5arith6linear24SimplexDecisionProcedure24generateConflictForBasicEj(ptr noundef nonnull align 8 dereferenceable(304) %0, i32 noundef %1)
  %5 = getelementptr inbounds nuw i8, ptr %0, i64 160
  tail call void @_ZNK4cvc58internal6theory5arith6linear13RaiseConflict13raiseConflictEPKNS3_10ConstraintENS1_11InferenceIdE(ptr noundef nonnull align 8 dereferenceable(8) %5, ptr noundef %4, i32 noundef 13)
  %6 = getelementptr inbounds nuw i8, ptr %0, i64 24
  call void @llvm.lifetime.start.p0(i64 1, ptr nonnull %3) #25
  store i8 1, ptr %3, align 1, !tbaa !321
  call void @_ZN4cvc58internal8DenseMapIbE3setEjRKb(ptr noundef nonnull align 8 dereferenceable(88) %6, i32 noundef %1, ptr noundef nonnull align 1 dereferenceable(1) %3)
  call void @llvm.lifetime.end.p0(i64 1, ptr nonnull %3) #25
  ret void
}